#include <math.h>
#include <stdio.h>
#include <stdlib.h>
#include <string.h>

int main()
{
	int *sz,i,j,k,n,x;
	scanf("%d",&n);
	sz=(int*)malloc(sizeof(int)*n);
	x=n;
	for(i=0;i<x;i++)
	{
		scanf("%d",sz+i);
	}
	for(i=0;i<x-1;i++)
	{
		for(j=i+1;j<x;j++)
		{
			if(sz[i]==sz[j])
			{
				for(k=j;k<x-1;k++)
				{	
					sz[k]=sz[k+1];
				}
				x--;
				j--;
			}
		}
	}
	for(i=0;i<x;i++)
	{
		if(i==0)
		{
			printf("%d",sz[i]);
		}
		else
		{
			printf(",%d",sz[i]);
		}
	}
	free(sz);
	return 0;
}