; ModuleID = '53/889.c'
source_filename = "53/889.c"
target datalayout = "e-m:e-p270:32:32-p271:32:32-p272:64:64-i64:64-f80:128-n8:16:32:64-S128"
target triple = "x86_64-pc-linux-gnu"

@.str = private unnamed_addr constant [3 x i8] c"%d\00", align 1
@.str.1 = private unnamed_addr constant [4 x i8] c",%d\00", align 1

; Function Attrs: noinline nounwind uwtable
define dso_local i32 @main() #0 {
  %1 = alloca i32, align 4
  %2 = alloca i32*, align 8
  %3 = alloca i32, align 4
  %4 = alloca i32, align 4
  %5 = alloca i32, align 4
  %6 = alloca i32, align 4
  %7 = alloca i32, align 4
  store i32 0, i32* %1, align 4
  %8 = call i32 (i8*, ...) @__isoc99_scanf(i8* getelementptr inbounds ([3 x i8], [3 x i8]* @.str, i64 0, i64 0), i32* %6)
  %9 = load i32, i32* %6, align 4
  %10 = sext i32 %9 to i64
  %11 = mul i64 4, %10
  %12 = call noalias i8* @malloc(i64 %11) #3
  %13 = bitcast i8* %12 to i32*
  store i32* %13, i32** %2, align 8
  %14 = load i32, i32* %6, align 4
  store i32 %14, i32* %7, align 4
  store i32 0, i32* %3, align 4
  br label %15

15:                                               ; preds = %25, %0
  %16 = load i32, i32* %3, align 4
  %17 = load i32, i32* %7, align 4
  %18 = icmp slt i32 %16, %17
  br i1 %18, label %19, label %28

19:                                               ; preds = %15
  %20 = load i32*, i32** %2, align 8
  %21 = load i32, i32* %3, align 4
  %22 = sext i32 %21 to i64
  %23 = getelementptr inbounds i32, i32* %20, i64 %22
  %24 = call i32 (i8*, ...) @__isoc99_scanf(i8* getelementptr inbounds ([3 x i8], [3 x i8]* @.str, i64 0, i64 0), i32* %23)
  br label %25

25:                                               ; preds = %19
  %26 = load i32, i32* %3, align 4
  %27 = add nsw i32 %26, 1
  store i32 %27, i32* %3, align 4
  br label %15

28:                                               ; preds = %15
  store i32 0, i32* %3, align 4
  br label %29

29:                                               ; preds = %84, %28
  %30 = load i32, i32* %3, align 4
  %31 = load i32, i32* %7, align 4
  %32 = sub nsw i32 %31, 1
  %33 = icmp slt i32 %30, %32
  br i1 %33, label %34, label %87

34:                                               ; preds = %29
  %35 = load i32, i32* %3, align 4
  %36 = add nsw i32 %35, 1
  store i32 %36, i32* %4, align 4
  br label %37

37:                                               ; preds = %80, %34
  %38 = load i32, i32* %4, align 4
  %39 = load i32, i32* %7, align 4
  %40 = icmp slt i32 %38, %39
  br i1 %40, label %41, label %83

41:                                               ; preds = %37
  %42 = load i32*, i32** %2, align 8
  %43 = load i32, i32* %3, align 4
  %44 = sext i32 %43 to i64
  %45 = getelementptr inbounds i32, i32* %42, i64 %44
  %46 = load i32, i32* %45, align 4
  %47 = load i32*, i32** %2, align 8
  %48 = load i32, i32* %4, align 4
  %49 = sext i32 %48 to i64
  %50 = getelementptr inbounds i32, i32* %47, i64 %49
  %51 = load i32, i32* %50, align 4
  %52 = icmp eq i32 %46, %51
  br i1 %52, label %53, label %79

53:                                               ; preds = %41
  %54 = load i32, i32* %4, align 4
  store i32 %54, i32* %5, align 4
  br label %55

55:                                               ; preds = %71, %53
  %56 = load i32, i32* %5, align 4
  %57 = load i32, i32* %7, align 4
  %58 = sub nsw i32 %57, 1
  %59 = icmp slt i32 %56, %58
  br i1 %59, label %60, label %74

60:                                               ; preds = %55
  %61 = load i32*, i32** %2, align 8
  %62 = load i32, i32* %5, align 4
  %63 = add nsw i32 %62, 1
  %64 = sext i32 %63 to i64
  %65 = getelementptr inbounds i32, i32* %61, i64 %64
  %66 = load i32, i32* %65, align 4
  %67 = load i32*, i32** %2, align 8
  %68 = load i32, i32* %5, align 4
  %69 = sext i32 %68 to i64
  %70 = getelementptr inbounds i32, i32* %67, i64 %69
  store i32 %66, i32* %70, align 4
  br label %71

71:                                               ; preds = %60
  %72 = load i32, i32* %5, align 4
  %73 = add nsw i32 %72, 1
  store i32 %73, i32* %5, align 4
  br label %55

74:                                               ; preds = %55
  %75 = load i32, i32* %7, align 4
  %76 = add nsw i32 %75, -1
  store i32 %76, i32* %7, align 4
  %77 = load i32, i32* %4, align 4
  %78 = add nsw i32 %77, -1
  store i32 %78, i32* %4, align 4
  br label %79

79:                                               ; preds = %74, %41
  br label %80

80:                                               ; preds = %79
  %81 = load i32, i32* %4, align 4
  %82 = add nsw i32 %81, 1
  store i32 %82, i32* %4, align 4
  br label %37

83:                                               ; preds = %37
  br label %84

84:                                               ; preds = %83
  %85 = load i32, i32* %3, align 4
  %86 = add nsw i32 %85, 1
  store i32 %86, i32* %3, align 4
  br label %29

87:                                               ; preds = %29
  store i32 0, i32* %3, align 4
  br label %88

88:                                               ; preds = %110, %87
  %89 = load i32, i32* %3, align 4
  %90 = load i32, i32* %7, align 4
  %91 = icmp slt i32 %89, %90
  br i1 %91, label %92, label %113

92:                                               ; preds = %88
  %93 = load i32, i32* %3, align 4
  %94 = icmp eq i32 %93, 0
  br i1 %94, label %95, label %102

95:                                               ; preds = %92
  %96 = load i32*, i32** %2, align 8
  %97 = load i32, i32* %3, align 4
  %98 = sext i32 %97 to i64
  %99 = getelementptr inbounds i32, i32* %96, i64 %98
  %100 = load i32, i32* %99, align 4
  %101 = call i32 (i8*, ...) @printf(i8* getelementptr inbounds ([3 x i8], [3 x i8]* @.str, i64 0, i64 0), i32 %100)
  br label %109

102:                                              ; preds = %92
  %103 = load i32*, i32** %2, align 8
  %104 = load i32, i32* %3, align 4
  %105 = sext i32 %104 to i64
  %106 = getelementptr inbounds i32, i32* %103, i64 %105
  %107 = load i32, i32* %106, align 4
  %108 = call i32 (i8*, ...) @printf(i8* getelementptr inbounds ([4 x i8], [4 x i8]* @.str.1, i64 0, i64 0), i32 %107)
  br label %109

109:                                              ; preds = %102, %95
  br label %110

110:                                              ; preds = %109
  %111 = load i32, i32* %3, align 4
  %112 = add nsw i32 %111, 1
  store i32 %112, i32* %3, align 4
  br label %88

113:                                              ; preds = %88
  %114 = load i32*, i32** %2, align 8
  %115 = bitcast i32* %114 to i8*
  call void @free(i8* %115) #3
  ret i32 0
}

declare dso_local i32 @__isoc99_scanf(i8*, ...) #1

; Function Attrs: nounwind
declare dso_local noalias i8* @malloc(i64) #2

declare dso_local i32 @printf(i8*, ...) #1

; Function Attrs: nounwind
declare dso_local void @free(i8*) #2


!llvm.module.flags = !{!0}
!llvm.ident = !{!1}

!0 = !{i32 1, !"wchar_size", i32 4}
!1 = !{!"clang version 10.0.0-4ubuntu1 "}
